target datalayout = "e-m:e-p270:32:32-p271:32:32-p272:64:64-i64:64-i128:128-f80:128-n8:16:32:64-S128"
target triple = "x86_64-pc-linux-gnu"

%"class.llvm::StringRef" = type { ptr, i64 }
%"class.llvm::MCRegister" = type { i32 }

@_ZZN4llvm23AArch64AppleInstPrinter15getRegisterNameENS_10MCRegisterEjE13AsmStrsvlist1 = internal constant [2 x i8] zeroinitializer, align 1
@_ZZN4llvm23AArch64AppleInstPrinter15getRegisterNameENS_10MCRegisterEjE18RegAsmOffsetvlist1 = internal constant [701 x i8] zeroinitializer, align 16

; Function Attrs: mustprogress nounwind uwtable
define linkonce_odr hidden noundef i64 @_ZNSt11char_traitsIcE6lengthEPKc(ptr noundef %0) #0 comdat align 2 {
  %2 = alloca ptr, align 8
  store ptr %0, ptr %2, align 8
  %3 = load ptr, ptr %2, align 8
  %4 = call i64 @strlen(ptr noundef %3) #12
  ret i64 %4
}

; Function Attrs: mustprogress nounwind uwtable
define linkonce_odr hidden noundef i32 @_ZNK4llvm10MCRegister2idEv(ptr noundef nonnull align 4 dereferenceable(4) %0) #0 comdat align 2 {
  %2 = alloca ptr, align 8
  store ptr %0, ptr %2, align 8
  %3 = load ptr, ptr %2, align 8
  %4 = getelementptr inbounds nuw %"class.llvm::MCRegister", ptr %3, i32 0, i32 0
  %5 = load i32, ptr %4, align 4
  ret i32 %5
}

; Function Attrs: mustprogress nounwind uwtable
define linkonce_odr hidden void @_ZN4llvm9StringRefC2EPKc(ptr noundef nonnull align 8 dereferenceable(16) %0, ptr noundef %1) unnamed_addr #0 comdat align 2 {
  %3 = alloca ptr, align 8
  %4 = alloca ptr, align 8
  store ptr %0, ptr %3, align 8
  store ptr %1, ptr %4, align 8
  %5 = load ptr, ptr %3, align 8
  %6 = getelementptr inbounds nuw %"class.llvm::StringRef", ptr %5, i32 0, i32 0
  %7 = load ptr, ptr %4, align 8
  store ptr %7, ptr %6, align 8
  %8 = getelementptr inbounds nuw %"class.llvm::StringRef", ptr %5, i32 0, i32 1
  %9 = load ptr, ptr %4, align 8
  %10 = icmp ne ptr %9, null
  br i1 %10, label %11, label %14

11:                                               ; preds = %2
  %12 = load ptr, ptr %4, align 8
  %13 = call noundef i64 @_ZNSt11char_traitsIcE6lengthEPKc(ptr noundef %12)
  br label %15

14:                                               ; preds = %2
  br label %15

15:                                               ; preds = %14, %11
  %16 = phi i64 [ %13, %11 ], [ 0, %14 ]
  store i64 %16, ptr %8, align 8
  ret void
}

; Function Attrs: mustprogress nounwind uwtable
define dso_local noundef ptr @_ZN4llvm23AArch64AppleInstPrinter15getRegisterNameENS_10MCRegisterEj(i32 %0, i32 noundef %1) #0 align 2 {
  %3 = alloca ptr, align 8
  %4 = alloca %"class.llvm::MCRegister", align 4
  %5 = alloca i32, align 4
  %6 = alloca i32, align 4
  %7 = getelementptr inbounds nuw %"class.llvm::MCRegister", ptr %4, i32 0, i32 0
  store i32 %0, ptr %7, align 4
  store i32 %1, ptr %5, align 4
  %8 = call noundef i32 @_ZNK4llvm10MCRegister2idEv(ptr noundef nonnull align 4 dereferenceable(4) %4)
  store i32 %8, ptr %6, align 4
  %9 = load i32, ptr %5, align 4
  switch i32 %9, label %10 [
    i32 0, label %11
    i32 1, label %20
    i32 2, label %29
  ]

10:                                               ; preds = %2
  unreachable

11:                                               ; preds = %2
  %12 = load i32, ptr %6, align 4
  %13 = sub i32 %12, 1
  %14 = zext i32 %13 to i64
  %15 = getelementptr inbounds [701 x i16], ptr @_ZZN4llvm23AArch64AppleInstPrinter15getRegisterNameENS_10MCRegisterEjE24RegAsmOffsetNoRegAltName, i64 0, i64 %14
  %16 = load i16, ptr %15, align 2
  %17 = zext i16 %16 to i32
  %18 = sext i32 %17 to i64
  %19 = getelementptr inbounds i8, ptr @_ZZN4llvm23AArch64AppleInstPrinter15getRegisterNameENS_10MCRegisterEjE19AsmStrsNoRegAltName, i64 %18
  store ptr %19, ptr %3, align 8
  br label %38

20:                                               ; preds = %2
  %21 = load i32, ptr %6, align 4
  %22 = sub i32 %21, 1
  %23 = zext i32 %22 to i64
  %24 = getelementptr inbounds [701 x i8], ptr @_ZZN4llvm23AArch64AppleInstPrinter15getRegisterNameENS_10MCRegisterEjE18RegAsmOffsetvlist1, i64 0, i64 %23
  %25 = load i8, ptr %24, align 1
  %26 = zext i8 %25 to i32
  %27 = sext i32 %26 to i64
  %28 = getelementptr inbounds i8, ptr @_ZZN4llvm23AArch64AppleInstPrinter15getRegisterNameENS_10MCRegisterEjE13AsmStrsvlist1, i64 %27
  store ptr %28, ptr %3, align 8
  br label %38

29:                                               ; preds = %2
  %30 = load i32, ptr %6, align 4
  %31 = sub i32 %30, 1
  %32 = zext i32 %31 to i64
  %33 = getelementptr inbounds [701 x i8], ptr @_ZZN4llvm23AArch64AppleInstPrinter15getRegisterNameENS_10MCRegisterEjE16RegAsmOffsetvreg, i64 0, i64 %32
  %34 = load i8, ptr %33, align 1
  %35 = zext i8 %34 to i32
  %36 = sext i32 %35 to i64
  %37 = getelementptr inbounds i8, ptr @_ZZN4llvm23AArch64AppleInstPrinter15getRegisterNameENS_10MCRegisterEjE11AsmStrsvreg, i64 %36
  store ptr %37, ptr %3, align 8
  br label %38

38:                                               ; preds = %29, %20, %11
  %39 = load ptr, ptr %3, align 8
  ret ptr %39
}

; Function Attrs: mustprogress nounwind uwtable
define dso_local { ptr, i64 } @_ZNK4llvm23AArch64AppleInstPrinter10getRegNameENS_10MCRegisterE(ptr noundef nonnull align 8 dereferenceable(58) %0, i32 %1) unnamed_addr #0 align 2 {
  %3 = alloca %"class.llvm::StringRef", align 8
  %4 = alloca %"class.llvm::MCRegister", align 4
  %5 = alloca ptr, align 8
  %6 = alloca %"class.llvm::MCRegister", align 4
  %7 = getelementptr inbounds nuw %"class.llvm::MCRegister", ptr %4, i32 0, i32 0
  store i32 %1, ptr %7, align 4
  store ptr %0, ptr %5, align 8
  call void @llvm.memcpy.p0.p0.i64(ptr align 4 %6, ptr align 4 %4, i64 4, i1 false)
  %8 = getelementptr inbounds nuw %"class.llvm::MCRegister", ptr %6, i32 0, i32 0
  %9 = load i32, ptr %8, align 4
  %10 = call noundef ptr @_ZN4llvm23AArch64AppleInstPrinter15getRegisterNameENS_10MCRegisterEj(i32 %9, i32 noundef 0)
  call void @_ZN4llvm9StringRefC2EPKc(ptr noundef nonnull align 8 dereferenceable(16) %3, ptr noundef %10)
  %11 = load { ptr, i64 }, ptr %3, align 8
  ret { ptr, i64 } %11
}