; Function Attrs: mustprogress nofree nosync nounwind willreturn memory(none) uwtable
define dso_local { ptr, i64 } @_ZNK4llvm23AArch64AppleInstPrinter10getRegNameENS_10MCRegisterE(ptr nocapture nonnull readnone align 8 %0, i32 %1) unnamed_addr #9 align 2 {
  %3 = add i32 %1, -1
  %4 = zext i32 %3 to i64
  %5 = getelementptr inbounds [701 x i16], ptr @_ZZN4llvm23AArch64AppleInstPrinter15getRegisterNameENS_10MCRegisterEjE24RegAsmOffsetNoRegAltName, i64 0, i64 %4
  %6 = load i16, ptr %5, align 2
  %7 = zext i16 %6 to i64
  %8 = getelementptr inbounds i8, ptr @_ZZN4llvm23AArch64AppleInstPrinter15getRegisterNameENS_10MCRegisterEjE19AsmStrsNoRegAltName, i64 %7
  %9 = tail call noundef i64 @strlen(ptr noundef nonnull dereferenceable(1) %8) #22
  %.fca.0.insert = insertvalue { ptr, i64 } poison, ptr %8, 0
  %.fca.1.insert = insertvalue { ptr, i64 } %.fca.0.insert, i64 %9, 1
  ret { ptr, i64 } %.fca.1.insert
}